; Function Attrs: mustprogress uwtable
define hidden void @_ZN13simple_parser7add_varEPKcP3var(ptr noundef nonnull align 8 dereferenceable(80) %0, ptr noundef %1, ptr noundef %2) local_unnamed_addr #3 align 2 {
  %4 = alloca %struct._key_data, align 8
  %5 = alloca %class.symbol, align 8
  call void @llvm.lifetime.start.p0(i64 8, ptr nonnull %5) #20
  call void @_ZN6symbolC1EPKc(ptr noundef nonnull align 8 dereferenceable(8) %5, ptr noundef %1)
  %6 = getelementptr inbounds nuw i8, ptr %0, i64 40
  call void @llvm.lifetime.start.p0(i64 16, ptr nonnull %4) #20
  %7 = load i64, ptr %5, align 8, !tbaa !33
  store i64 %7, ptr %4, align 8, !tbaa !33
  %8 = getelementptr inbounds nuw i8, ptr %4, i64 8
  store ptr %2, ptr %8, align 8, !tbaa !35
  call void @_ZN14core_hashtableI17default_map_entryI6symbolP3varEN9table2mapIS4_16symbol_hash_proc14symbol_eq_procE15entry_hash_procENS8_13entry_eq_procEE6insertEO9_key_dataIS1_S3_E(ptr noundef nonnull align 8 dereferenceable(24) %6, ptr noundef nonnull align 8 dereferenceable(16) %4)
  call void @llvm.lifetime.end.p0(i64 16, ptr nonnull %4) #20
  call void @llvm.lifetime.end.p0(i64 8, ptr nonnull %5) #20
  ret void
}